; Function Attrs: mustprogress uwtable
define hidden noundef zeroext i1 @_ZNK4cvc58internal22UninterpretedSortValueleERKS1_(ptr noundef nonnull align 8 dereferenceable(24) %0, ptr noundef nonnull align 8 dereferenceable(24) %1) local_unnamed_addr #3 align 2 {
  %3 = load ptr, ptr %0, align 8, !tbaa !3
  %4 = load ptr, ptr %1, align 8, !tbaa !3
  %5 = load ptr, ptr %3, align 8, !tbaa !10
  %6 = load i64, ptr %5, align 8
  %7 = and i64 %6, 1099511627775
  %8 = load ptr, ptr %4, align 8, !tbaa !10
  %9 = load i64, ptr %8, align 8
  %10 = and i64 %9, 1099511627775
  %.not = icmp samesign ugt i64 %7, %10
  br i1 %.not, label %11, label %17

11:                                               ; preds = %2
  %12 = icmp eq ptr %5, %8
  br i1 %12, label %13, label %17

13:                                               ; preds = %11
  %14 = getelementptr inbounds nuw i8, ptr %0, i64 8
  %15 = getelementptr inbounds nuw i8, ptr %1, i64 8
  %16 = tail call noundef zeroext i1 @_ZNK4cvc58internal7IntegerleERKS1_(ptr noundef nonnull align 8 dereferenceable(16) %14, ptr noundef nonnull align 8 dereferenceable(16) %15)
  br label %17

17:                                               ; preds = %11, %13, %2
  %18 = phi i1 [ true, %2 ], [ false, %11 ], [ %16, %13 ]
  ret i1 %18
}